Certificate:
    Data:
        Version: 3 (0x2)
        Serial Number: 3 (0x3)
    Signature Algorithm: sha256WithRSAEncryption
        Issuer: C=US, ST=CA, L=SanFrancisco, O=OpenVPN, OU=changeme, CN=changeme/name=changeme/emailAddress=mail@host.domain
        Validity
            Not Before: Jan  8 00:39:56 2024 GMT
            Not After : Jan  5 00:39:56 2034 GMT
        Subject: C=US, ST=CA, L=SanFrancisco, O=OpenVPN, OU=changeme, CN=client2/name=changeme/emailAddress=mail@host.domain
        Subject Public Key Info:
            Public Key Algorithm: rsaEncryption
                Public-Key: (4096 bit)
                Modulus:
                    00:ab:ea:a3:1c:16:ad:02:75:dd:48:2d:99:59:94:
                    b4:54:04:19:b4:d0:51:15:44:53:3a:2c:b1:b6:2b:
                    c9:54:e5:b1:43:a2:01:71:7d:18:23:15:c0:ab:9f:
                    38:a5:98:cd:fc:0a:1b:21:50:ef:b5:c9:23:44:14:
                    8c:62:9b:ae:9d:32:41:e3:39:2b:36:45:6e:97:03:
                    83:d1:35:98:6a:52:01:3d:eb:78:d5:fa:62:55:ad:
                    aa:cb:3c:0d:fb:f7:cd:41:20:b0:7b:30:c3:90:db:
                    11:fc:8e:eb:93:ab:96:a8:02:72:0a:ac:9b:39:d9:
                    23:b5:0c:3e:94:0c:fa:8b:db:e8:00:b3:b9:17:51:
                    b4:67:ae:d5:f4:57:f7:5c:8a:15:70:dd:55:f1:28:
                    2e:23:72:37:d8:9c:a2:bb:ae:a0:02:9f:5b:ff:48:
                    29:87:ab:92:6e:21:3b:6f:97:eb:37:78:7a:87:59:
                    b1:69:d5:a9:e4:98:77:05:a6:40:e2:41:e2:5f:54:
                    d1:3a:62:08:da:25:36:ca:58:66:98:f4:0c:7d:c9:
                    90:08:f7:ef:e1:a8:57:71:72:b0:79:e4:55:ca:23:
                    16:37:81:03:fb:f0:c7:46:f8:6e:dc:f5:0c:14:70:
                    5d:54:3b:b2:2f:36:68:fb:3d:6e:01:90:f0:4c:10:
                    30:b6:7a:28:3c:6a:51:ab:ec:41:72:12:28:ae:8b:
                    26:66:dd:20:ff:74:f3:35:d6:98:56:a0:43:2d:8a:
                    9d:3f:49:9e:47:91:d5:d6:e6:19:b6:0b:dd:07:66:
                    df:9e:3d:c0:37:8e:82:c2:a3:5c:d6:81:b0:40:7b:
                    60:3f:a5:a0:14:1c:09:58:18:4d:04:0a:4e:60:80:
                    38:5b:93:8f:ac:92:b7:d9:1f:32:ae:62:be:30:cb:
                    46:73:e1:05:3d:b4:d1:35:af:80:0c:ce:04:3d:f9:
                    db:e3:a4:46:cf:4f:42:da:4f:91:95:26:41:7e:e4:
                    aa:c2:70:a4:75:d7:da:a9:aa:23:b6:d6:7c:eb:df:
                    54:1b:0d:6b:9c:c6:27:43:fc:e8:a9:8a:c6:3e:09:
                    60:a6:f2:34:79:fa:99:75:5a:39:98:60:d4:90:cb:
                    0c:39:9f:fe:9f:19:72:0a:d0:52:07:0b:a0:4a:f5:
                    a7:b6:14:20:6b:ce:32:00:24:aa:eb:ec:89:9d:17:
                    55:18:83:44:89:b9:8c:18:ab:20:57:1c:f2:28:65:
                    29:f4:c1:4a:ac:7b:0a:78:6f:95:64:7a:1e:98:90:
                    9e:31:5c:cc:a9:b1:76:50:46:22:5e:9f:2e:5b:18:
                    f9:8e:c4:4f:c5:44:1b:b6:02:62:b0:74:53:c4:f4:
                    37:10:63
                Exponent: 65537 (0x10001)
        X509v3 extensions:
            X509v3 Basic Constraints: 
                CA:FALSE
            Netscape Comment: 
                Easy-RSA Generated Certificate
            X509v3 Subject Key Identifier: 
                B8:50:1B:74:6C:EC:00:DF:CD:77:73:94:64:0C:39:E4:A5:7F:3B:70
            X509v3 Authority Key Identifier: 
                keyid:F8:8E:64:15:04:E6:BA:9F:23:62:60:81:EB:46:54:54:EF:D0:3C:AE
                DirName:/C=US/ST=CA/L=SanFrancisco/O=OpenVPN/OU=changeme/CN=changeme/name=changeme/emailAddress=mail@host.domain
                serial:BA:B7:75:E0:91:94:FC:8E

            X509v3 Extended Key Usage: 
                TLS Web Client Authentication
            X509v3 Key Usage: 
                Digital Signature
    Signature Algorithm: sha256WithRSAEncryption
         77:0f:f2:66:0b:8d:f1:11:22:75:73:db:11:29:ce:f8:12:4e:
         79:65:45:29:3a:41:ed:58:65:3a:1e:ae:f0:8a:6f:c5:f2:15:
         f5:f5:85:76:05:c1:42:12:1f:a5:4c:37:9f:a8:bf:b0:a0:e3:
         1d:51:4d:a6:53:70:27:53:b0:f4:2a:15:9b:1b:28:ea:d1:b2:
         f7:8e:9c:8f:7c:d6:87:0c:ce:37:ee:19:84:33:3a:a4:79:30:
         0d:a1:e1:69:f7:03:c0:8c:87:13:13:b2:dd:28:d7:cc:88:b2:
         be:15:62:55:d1:49:f6:dd:ac:03:36:97:7c:01:2b:33:c5:a6:
         8b:59:1f:68:11:8c:65:55:b2:9d:b3:b5:1b:73:40:3d:ed:90:
         8b:c0:f8:65:d2:ad:7d:d3:91:1b:ce:a2:ae:d9:83:ff:e5:eb:
         3b:9e:64:0e:9c:fe:0e:8d:ce:3c:0b:c9:ea:1c:e3:89:94:37:
         d7:a4:09:76:27:c9:0f:0a:b0:c7:2c:c8:85:86:88:3d:4d:47:
         8c:99:7e:c9:26:3c:29:c1:d2:54:c5:58:74:b2:04:58:be:d9:
         25:c2:7d:32:63:65:5a:5c:de:bb:b7:4b:ac:aa:ff:29:4e:49:
         8f:08:b9:d7:d7:eb:82:e3:a6:15:1e:39:67:9d:d2:9f:40:3f:
         f7:11:5b:c1:41:13:98:69:6a:db:18:de:01:48:d9:d3:87:7b:
         02:60:c3:c4:71:59:d7:f7:b2:e8:65:fb:69:66:7f:6f:80:ff:
         9f:84:e6:9e:d9:57:ed:97:b0:cd:c2:bc:12:88:8a:f3:a5:e4:
         9e:6e:35:bc:6a:e2:12:6d:ae:df:55:cc:03:aa:1b:40:05:f7:
         fd:06:d3:20:bb:23:09:4e:2e:2c:88:b2:eb:d7:01:d5:38:a0:
         15:f6:cd:bb:6d:38:9c:ef:e0:eb:30:6c:41:2d:eb:f7:3a:c7:
         8c:5f:b6:4d:31:93:f5:2a:12:63:1c:08:f5:e6:6d:37:57:f1:
         27:76:d1:7e:b2:c0:29:67:ec:a6:82:3e:84:6e:d8:f6:8f:30:
         bb:01:f5:53:4e:e2:7d:c1:f6:19:ef:7c:5a:09:2b:ca:ea:b6:
         a3:1e:ba:cb:d7:a6:8a:8d:b0:0b:b5:d2:eb:9d:d3:2d:0c:34:
         d4:51:e9:9c:b4:9f:72:50:64:79:f7:58:da:f4:14:b1:30:ad:
         42:7f:ba:12:35:a9:49:69:78:84:c7:8b:d3:98:a8:d2:9f:3b:
         a4:15:39:51:0b:13:d7:0e:2e:88:2f:a3:bf:f6:17:62:90:a9:
         e1:e3:56:49:0f:56:9b:e4:aa:cb:38:ef:1a:82:a2:4d:db:98:
         1e:6f:a3:f3:7b:77:6b:d8
-----BEGIN CERTIFICATE-----
MIIHDDCCBPSgAwIBAgIBAzANBgkqhkiG9w0BAQsFADCBnTELMAkGA1UEBhMCVVMx
CzAJBgNVBAgTAkNBMRUwEwYDVQQHEwxTYW5GcmFuY2lzY28xEDAOBgNVBAoTB09w
ZW5WUE4xETAPBgNVBAsTCGNoYW5nZW1lMREwDwYDVQQDEwhjaGFuZ2VtZTERMA8G
A1UEKRMIY2hhbmdlbWUxHzAdBgkqhkiG9w0BCQEWEG1haWxAaG9zdC5kb21haW4w
HhcNMjQwMTA4MDAzOTU2WhcNMzQwMTA1MDAzOTU2WjCBnDELMAkGA1UEBhMCVVMx
CzAJBgNVBAgTAkNBMRUwEwYDVQQHEwxTYW5GcmFuY2lzY28xEDAOBgNVBAoTB09w
ZW5WUE4xETAPBgNVBAsTCGNoYW5nZW1lMRAwDgYDVQQDEwdjbGllbnQyMREwDwYD
VQQpEwhjaGFuZ2VtZTEfMB0GCSqGSIb3DQEJARYQbWFpbEBob3N0LmRvbWFpbjCC
AiIwDQYJKoZIhvcNAQEBBQADggIPADCCAgoCggIBAKvqoxwWrQJ13UgtmVmUtFQE
GbTQURVEUzossbYryVTlsUOiAXF9GCMVwKufOKWYzfwKGyFQ77XJI0QUjGKbrp0y
QeM5KzZFbpcDg9E1mGpSAT3reNX6YlWtqss8Dfv3zUEgsHsww5DbEfyO65OrlqgC
cgqsmznZI7UMPpQM+ovb6ACzuRdRtGeu1fRX91yKFXDdVfEoLiNyN9icoruuoAKf
W/9IKYerkm4hO2+X6zd4eodZsWnVqeSYdwWmQOJB4l9U0TpiCNolNspYZpj0DH3J
kAj37+GoV3FysHnkVcojFjeBA/vwx0b4btz1DBRwXVQ7si82aPs9bgGQ8EwQMLZ6
KDxqUavsQXISKK6LJmbdIP908zXWmFagQy2KnT9JnkeR1dbmGbYL3Qdm3549wDeO
gsKjXNaBsEB7YD+loBQcCVgYTQQKTmCAOFuTj6ySt9kfMq5ivjDLRnPhBT200TWv
gAzOBD352+OkRs9PQtpPkZUmQX7kqsJwpHXX2qmqI7bWfOvfVBsNa5zGJ0P86KmK
xj4JYKbyNHn6mXVaOZhg1JDLDDmf/p8ZcgrQUgcLoEr1p7YUIGvOMgAkquvsiZ0X
VRiDRIm5jBirIFcc8ihlKfTBSqx7CnhvlWR6HpiQnjFczKmxdlBGIl6fLlsY+Y7E
T8VEG7YCYrB0U8T0NxBjAgMBAAGjggFUMIIBUDAJBgNVHRMEAjAAMC0GCWCGSAGG
+EIBDQQgFh5FYXN5LVJTQSBHZW5lcmF0ZWQgQ2VydGlmaWNhdGUwHQYDVR0OBBYE
FLhQG3Rs7ADfzXdzlGQMOeSlfztwMIHSBgNVHSMEgcowgceAFPiOZBUE5rqfI2Jg
getGVFTv0DyuoYGjpIGgMIGdMQswCQYDVQQGEwJVUzELMAkGA1UECBMCQ0ExFTAT
BgNVBAcTDFNhbkZyYW5jaXNjbzEQMA4GA1UEChMHT3BlblZQTjERMA8GA1UECxMI
Y2hhbmdlbWUxETAPBgNVBAMTCGNoYW5nZW1lMREwDwYDVQQpEwhjaGFuZ2VtZTEf
MB0GCSqGSIb3DQEJARYQbWFpbEBob3N0LmRvbWFpboIJALq3deCRlPyOMBMGA1Ud
JQQMMAoGCCsGAQUFBwMCMAsGA1UdDwQEAwIHgDANBgkqhkiG9w0BAQsFAAOCAgEA
dw/yZguN8REidXPbESnO+BJOeWVFKTpB7VhlOh6u8IpvxfIV9fWFdgXBQhIfpUw3
n6i/sKDjHVFNplNwJ1Ow9CoVmxso6tGy946cj3zWhwzON+4ZhDM6pHkwDaHhafcD
wIyHExOy3SjXzIiyvhViVdFJ9t2sAzaXfAErM8Wmi1kfaBGMZVWynbO1G3NAPe2Q
i8D4ZdKtfdORG86irtmD/+XrO55kDpz+Do3OPAvJ6hzjiZQ316QJdifJDwqwxyzI
hYaIPU1HjJl+ySY8KcHSVMVYdLIEWL7ZJcJ9MmNlWlzeu7dLrKr/KU5Jjwi519fr
guOmFR45Z53Sn0A/9xFbwUETmGlq2xjeAUjZ04d7AmDDxHFZ1/ey6GX7aWZ/b4D/
n4TmntlX7ZewzcK8EoiK86Xknm41vGriEm2u31XMA6obQAX3/QbTILsjCU4uLIiy
69cB1TigFfbNu204nO/g6zBsQS3r9zrHjF+2TTGT9SoSYxwI9eZtN1fxJ3bRfrLA
KWfspoI+hG7Y9o8wuwH1U07ifcH2Ge98Wgkryuq2ox66y9emio2wC7XS653TLQw0
1FHpnLSfclBkefdY2vQUsTCtQn+6EjWpSWl4hMeL05io0p87pBU5UQsT1w4uiC+j
v/YXYpCp4eNWSQ9Wm+SqyzjvGoKiTduYHm+j83t3a9g=
-----END CERTIFICATE-----
