Certificate:
    Data:
        Version: 3 (0x2)
        Serial Number: 2 (0x2)
    Signature Algorithm: sha256WithRSAEncryption
        Issuer: C=US, ST=PA, L=Philadelphia, O=OpenVPN, OU=changeme, CN=OpenVPN-PA/name=changeme/emailAddress=mail@host.domain
        Validity
            Not Before: Dec 30 01:26:31 2023 GMT
            Not After : Dec 27 01:26:31 2033 GMT
        Subject: C=US, ST=PA, L=Philadelphia, O=OpenVPN, OU=changeme, CN=Peter/name=changeme/emailAddress=mail@host.domain
        Subject Public Key Info:
            Public Key Algorithm: rsaEncryption
                Public-Key: (4096 bit)
                Modulus:
                    00:c5:8a:ec:bc:f8:06:25:79:0c:2b:2c:a3:d5:1b:
                    f0:a7:f6:63:14:ec:a7:53:f8:22:c5:26:cc:c4:89:
                    f9:82:01:c5:0d:f8:93:d4:9d:fd:0a:ff:eb:41:61:
                    0e:4e:49:04:92:76:41:17:82:81:95:e5:3d:48:0a:
                    2a:fc:84:23:2d:a9:13:84:dd:e6:6f:40:7a:d5:11:
                    36:c7:1d:2b:67:27:63:0a:af:12:9f:39:2d:95:21:
                    ed:19:d5:d8:9c:69:e3:9a:2e:5d:cb:06:8d:a1:17:
                    59:37:40:28:cd:f7:a1:0e:d5:81:ff:53:a8:37:c3:
                    ea:34:f0:31:8d:68:f6:41:15:f3:b7:a9:c2:42:8e:
                    25:8d:00:a5:eb:a6:59:da:1f:96:ee:84:22:61:13:
                    1e:dc:ab:88:fb:70:27:cc:4f:cb:53:09:df:eb:c3:
                    c5:89:f3:c1:95:4f:de:9d:50:e6:22:2e:94:7f:ad:
                    d4:08:7e:b5:39:07:d8:cf:ae:e1:e4:84:1f:c7:ad:
                    6a:bc:cd:5b:89:cb:8e:b6:fa:27:1d:43:af:64:fe:
                    97:51:56:84:b6:eb:23:38:d0:28:bf:c4:f1:c3:01:
                    3b:38:3d:3f:04:de:38:ef:ec:75:83:44:99:e1:49:
                    45:99:4f:0d:c7:6f:1f:43:d9:bc:d5:ac:cb:4b:27:
                    a8:10:9f:e8:74:52:69:51:c4:a9:98:00:14:35:d9:
                    d9:f8:7a:f5:31:b9:8e:17:c2:1e:33:d4:40:f2:1c:
                    3c:8f:68:1e:40:cc:bd:84:7f:16:d1:c3:3c:17:80:
                    64:4f:a2:77:ba:69:87:87:b4:f5:49:17:bc:a2:54:
                    51:e0:84:27:14:f0:6b:c1:86:ba:6c:2f:45:46:1c:
                    58:ad:fb:d7:61:40:09:bb:61:ae:96:03:50:00:3d:
                    89:41:6a:cc:c8:cd:9e:a9:a7:ab:da:a4:80:34:93:
                    37:28:b3:88:14:7d:ed:4b:9b:9a:e7:f4:0d:00:1c:
                    97:8b:e5:d6:d8:ac:74:e7:e0:06:ba:fd:fc:0a:d4:
                    87:ee:9c:d4:85:91:8e:35:9b:a9:15:3f:2d:6f:c2:
                    58:5f:a6:15:75:12:22:b1:21:60:81:1e:17:39:0c:
                    1a:66:0b:50:a4:0f:ab:5f:13:3d:28:6d:80:0f:be:
                    a7:ec:cd:11:51:ce:c5:4b:06:27:c7:b0:79:93:56:
                    71:61:33:c5:46:d5:6c:fd:80:01:cd:7c:dc:03:f4:
                    fb:7e:42:0f:d1:86:16:77:40:dc:bc:b7:a7:d2:ac:
                    16:6d:de:83:b5:f6:6e:c3:66:12:c2:f3:72:8f:0c:
                    b1:d2:71:00:a4:5a:68:8f:99:a7:e0:ac:c0:57:f2:
                    23:e2:0d
                Exponent: 65537 (0x10001)
        X509v3 extensions:
            X509v3 Basic Constraints: 
                CA:FALSE
            Netscape Comment: 
                Easy-RSA Generated Certificate
            X509v3 Subject Key Identifier: 
                58:F7:7E:30:9A:90:70:CC:47:40:A5:0B:FF:91:A9:6E:6E:47:75:09
            X509v3 Authority Key Identifier: 
                keyid:B7:4F:01:B8:94:6A:34:43:19:55:2A:B1:88:35:8A:55:A4:7C:46:C2
                DirName:/C=US/ST=PA/L=Philadelphia/O=OpenVPN/OU=changeme/CN=OpenVPN-PA/name=changeme/emailAddress=mail@host.domain
                serial:CD:D6:7E:5A:E0:0C:07:B6

            X509v3 Extended Key Usage: 
                TLS Web Client Authentication
            X509v3 Key Usage: 
                Digital Signature
    Signature Algorithm: sha256WithRSAEncryption
         8c:be:c1:2a:4f:13:97:ba:90:bd:b3:94:f4:ca:04:47:fd:9e:
         e0:1d:f7:32:17:f0:76:07:4e:3c:57:6f:11:a2:72:8c:4d:e2:
         85:9c:48:46:cc:29:bb:c6:26:51:08:de:16:f9:c5:5b:db:9f:
         d9:a2:61:58:1e:6e:8e:6a:f6:97:c3:12:26:97:d8:1a:50:22:
         2b:56:b9:18:d8:5f:e0:53:bc:a7:35:d0:c7:b7:c4:07:6f:c7:
         80:fa:1d:ab:0b:d8:a4:b9:04:05:66:58:8a:12:16:2c:82:08:
         ba:4b:f5:64:c4:60:c7:30:4a:d3:3e:c4:ce:9c:e7:c1:6c:77:
         82:bb:cb:62:32:7c:cd:f5:f0:da:dd:4e:ea:14:62:df:d3:f0:
         73:f5:2d:17:3a:2a:7a:13:7e:e7:5a:1a:b1:17:ac:cd:df:67:
         10:eb:c7:4f:49:b9:6a:96:6c:6a:2c:14:6b:8f:92:b7:61:01:
         5e:5c:f1:c1:35:37:bf:eb:35:2f:01:c6:c9:26:73:e4:93:92:
         50:23:df:62:a3:be:28:db:a2:f3:a0:c6:15:88:9f:26:ac:1e:
         43:8f:82:e2:a1:10:5a:34:b4:cb:00:97:a9:a7:8d:3a:9e:5d:
         5f:d2:3a:21:fc:64:63:55:02:1b:4a:ef:f1:ad:56:9a:1a:6c:
         80:fd:cd:00:b1:b5:37:6f:3f:d5:3a:2a:8d:3a:35:d1:d8:21:
         9c:be:58:64:0e:f0:04:fe:99:e7:92:75:5c:ae:87:c7:9e:04:
         c8:5f:55:e8:49:b9:75:4c:1c:43:21:dd:aa:88:61:4d:bc:94:
         7d:ea:27:14:f2:22:29:b5:a4:b8:e9:b5:b5:e5:2d:66:3f:4e:
         4f:6a:57:bd:ee:dc:7a:40:6a:e1:c7:0b:dc:71:df:37:f2:89:
         54:20:67:e6:d2:f2:46:1b:c6:9d:b6:83:72:e3:b0:8b:cb:c7:
         e9:5c:f1:b5:48:10:14:8b:95:56:2b:da:e4:c5:00:9c:13:a9:
         06:a0:77:11:26:90:c8:5b:14:48:f3:9a:31:7e:0f:55:2a:0e:
         f7:92:56:1b:bb:96:14:91:4b:7a:fb:f5:80:f6:b9:b0:90:b4:
         a5:dc:36:27:d6:b6:db:07:2c:28:55:86:f8:4b:e9:07:3f:05:
         f2:06:5a:30:7c:ae:22:4a:6a:b7:32:c9:17:77:bb:1d:c0:85:
         d1:94:68:99:ca:08:d2:49:9b:a6:93:ec:c9:d0:2c:f2:15:95:
         da:f1:3c:34:47:3f:9c:b0:b5:e0:c4:8d:70:10:71:9d:c9:7b:
         55:e0:47:2f:b5:01:4d:d2:2c:ad:5f:2d:06:b3:7d:ca:8d:dd:
         4d:a0:96:86:e9:4b:6a:01
-----BEGIN CERTIFICATE-----
MIIHDjCCBPagAwIBAgIBAjANBgkqhkiG9w0BAQsFADCBnzELMAkGA1UEBhMCVVMx
CzAJBgNVBAgTAlBBMRUwEwYDVQQHEwxQaGlsYWRlbHBoaWExEDAOBgNVBAoTB09w
ZW5WUE4xETAPBgNVBAsTCGNoYW5nZW1lMRMwEQYDVQQDEwpPcGVuVlBOLVBBMREw
DwYDVQQpEwhjaGFuZ2VtZTEfMB0GCSqGSIb3DQEJARYQbWFpbEBob3N0LmRvbWFp
bjAeFw0yMzEyMzAwMTI2MzFaFw0zMzEyMjcwMTI2MzFaMIGaMQswCQYDVQQGEwJV
UzELMAkGA1UECBMCUEExFTATBgNVBAcTDFBoaWxhZGVscGhpYTEQMA4GA1UEChMH
T3BlblZQTjERMA8GA1UECxMIY2hhbmdlbWUxDjAMBgNVBAMTBVBldGVyMREwDwYD
VQQpEwhjaGFuZ2VtZTEfMB0GCSqGSIb3DQEJARYQbWFpbEBob3N0LmRvbWFpbjCC
AiIwDQYJKoZIhvcNAQEBBQADggIPADCCAgoCggIBAMWK7Lz4BiV5DCsso9Ub8Kf2
YxTsp1P4IsUmzMSJ+YIBxQ34k9Sd/Qr/60FhDk5JBJJ2QReCgZXlPUgKKvyEIy2p
E4Td5m9AetURNscdK2cnYwqvEp85LZUh7RnV2Jxp45ouXcsGjaEXWTdAKM33oQ7V
gf9TqDfD6jTwMY1o9kEV87epwkKOJY0ApeumWdoflu6EImETHtyriPtwJ8xPy1MJ
3+vDxYnzwZVP3p1Q5iIulH+t1Ah+tTkH2M+u4eSEH8etarzNW4nLjrb6Jx1Dr2T+
l1FWhLbrIzjQKL/E8cMBOzg9PwTeOO/sdYNEmeFJRZlPDcdvH0PZvNWsy0snqBCf
6HRSaVHEqZgAFDXZ2fh69TG5jhfCHjPUQPIcPI9oHkDMvYR/FtHDPBeAZE+id7pp
h4e09UkXvKJUUeCEJxTwa8GGumwvRUYcWK3712FACbthrpYDUAA9iUFqzMjNnqmn
q9qkgDSTNyiziBR97Uubmuf0DQAcl4vl1tisdOfgBrr9/ArUh+6c1IWRjjWbqRU/
LW/CWF+mFXUSIrEhYIEeFzkMGmYLUKQPq18TPShtgA++p+zNEVHOxUsGJ8eweZNW
cWEzxUbVbP2AAc183AP0+35CD9GGFndA3Ly3p9KsFm3eg7X2bsNmEsLzco8MsdJx
AKRaaI+Zp+CswFfyI+INAgMBAAGjggFWMIIBUjAJBgNVHRMEAjAAMC0GCWCGSAGG
+EIBDQQgFh5FYXN5LVJTQSBHZW5lcmF0ZWQgQ2VydGlmaWNhdGUwHQYDVR0OBBYE
FFj3fjCakHDMR0ClC/+RqW5uR3UJMIHUBgNVHSMEgcwwgcmAFLdPAbiUajRDGVUq
sYg1ilWkfEbCoYGlpIGiMIGfMQswCQYDVQQGEwJVUzELMAkGA1UECBMCUEExFTAT
BgNVBAcTDFBoaWxhZGVscGhpYTEQMA4GA1UEChMHT3BlblZQTjERMA8GA1UECxMI
Y2hhbmdlbWUxEzARBgNVBAMTCk9wZW5WUE4tUEExETAPBgNVBCkTCGNoYW5nZW1l
MR8wHQYJKoZIhvcNAQkBFhBtYWlsQGhvc3QuZG9tYWluggkAzdZ+WuAMB7YwEwYD
VR0lBAwwCgYIKwYBBQUHAwIwCwYDVR0PBAQDAgeAMA0GCSqGSIb3DQEBCwUAA4IC
AQCMvsEqTxOXupC9s5T0ygRH/Z7gHfcyF/B2B048V28RonKMTeKFnEhGzCm7xiZR
CN4W+cVb25/ZomFYHm6OavaXwxIml9gaUCIrVrkY2F/gU7ynNdDHt8QHb8eA+h2r
C9ikuQQFZliKEhYsggi6S/VkxGDHMErTPsTOnOfBbHeCu8tiMnzN9fDa3U7qFGLf
0/Bz9S0XOip6E37nWhqxF6zN32cQ68dPSblqlmxqLBRrj5K3YQFeXPHBNTe/6zUv
AcbJJnPkk5JQI99io74o26LzoMYViJ8mrB5Dj4LioRBaNLTLAJepp406nl1f0joh
/GRjVQIbSu/xrVaaGmyA/c0AsbU3bz/VOiqNOjXR2CGcvlhkDvAE/pnnknVcrofH
ngTIX1XoSbl1TBxDId2qiGFNvJR96icU8iIptaS46bW15S1mP05Pale97tx6QGrh
xwvccd838olUIGfm0vJGG8adtoNy47CLy8fpXPG1SBAUi5VWK9rkxQCcE6kGoHcR
JpDIWxRI85oxfg9VKg73klYbu5YUkUt6+/WA9rmwkLSl3DYn1rbbBywoVYb4S+kH
PwXyBlowfK4iSmq3MskXd7sdwIXRlGiZygjSSZumk+zJ0CzyFZXa8Tw0Rz+csLXg
xI1wEHGdyXtV4EcvtQFN0iytXy0Gs33Kjd1NoJaG6UtqAQ==
-----END CERTIFICATE-----
