Certificate:
    Data:
        Version: 3 (0x2)
        Serial Number: 2 (0x2)
    Signature Algorithm: sha256WithRSAEncryption
        Issuer: C=US, ST=CA, L=SanFrancisco, O=OpenVPN, OU=changeme, CN=changeme/name=changeme/emailAddress=mail@host.domain
        Validity
            Not Before: Jan  8 00:39:18 2024 GMT
            Not After : Jan  5 00:39:18 2034 GMT
        Subject: C=US, ST=CA, L=SanFrancisco, O=OpenVPN, OU=changeme, CN=client1/name=changeme/emailAddress=mail@host.domain
        Subject Public Key Info:
            Public Key Algorithm: rsaEncryption
                Public-Key: (4096 bit)
                Modulus:
                    00:aa:8b:cd:a1:69:cb:89:5f:92:46:c1:d8:55:6f:
                    79:8e:59:3b:11:d4:04:8c:c1:0b:6c:27:c1:ca:f5:
                    d7:7b:13:3d:a8:7e:8c:fa:11:cd:35:13:9d:f9:e3:
                    d1:85:bf:ca:72:71:90:58:3d:fc:ea:79:ca:72:12:
                    0f:35:92:56:5a:cb:ff:aa:91:9d:ba:8e:4b:ab:ac:
                    3e:93:7c:bd:21:b3:45:58:01:10:1e:ec:40:63:03:
                    93:1c:57:8e:7e:a5:1c:8c:a9:ed:d8:cf:15:9c:7a:
                    c0:ae:89:59:b3:55:03:50:68:1a:1f:2c:88:55:0c:
                    c6:33:80:6e:44:a6:e8:69:62:5a:a8:2e:8d:b5:85:
                    57:43:40:cb:fd:d2:a8:35:71:ab:33:16:79:86:30:
                    48:e5:a6:32:ef:14:ef:90:32:4d:23:1f:d2:76:71:
                    05:e9:8e:72:ab:3a:83:e9:0e:fc:4d:d5:f7:f4:ad:
                    19:6e:01:c4:c7:ca:01:98:19:cd:9e:be:81:ba:12:
                    ed:ab:a6:82:51:22:c3:a8:2d:49:87:cd:50:6b:8f:
                    b4:17:83:f3:fa:d7:69:00:35:30:ec:52:5d:9c:ea:
                    e7:17:91:84:69:c0:9c:43:72:23:b9:4e:70:d1:23:
                    e4:f4:2d:a6:20:e5:f7:6f:d4:f0:e4:db:22:05:19:
                    c1:19:35:bd:8f:c1:76:8f:b1:15:23:4b:ac:1a:01:
                    9c:8b:84:bd:d2:4b:8b:ea:93:d2:fe:93:92:4a:68:
                    aa:39:4e:0b:ab:e1:c0:21:61:54:65:1b:19:07:de:
                    15:08:ea:c7:cb:b0:68:6b:5f:40:14:45:fc:16:b4:
                    f6:16:0b:26:3f:ca:af:7d:3b:dd:92:62:7e:c6:f7:
                    a3:b3:d0:c0:b0:b9:5a:d6:42:43:cd:b1:d4:81:0e:
                    62:cd:ee:a9:e8:04:ad:31:47:27:dc:67:0f:74:cf:
                    3d:dc:fd:79:c0:a1:30:54:8f:18:b1:96:92:ea:0c:
                    af:ba:7e:4a:6b:7c:61:92:93:cc:e7:e7:0c:44:3e:
                    46:bf:b4:68:5f:7e:b0:27:7a:44:c7:04:4a:0c:5b:
                    2f:44:05:37:04:26:bc:b1:d3:9a:6e:12:22:5b:9e:
                    6e:9f:51:19:d0:d7:8b:8f:f6:8d:b7:10:93:27:c6:
                    cc:36:f8:f6:c5:05:ec:8c:9a:1c:81:db:0d:3d:54:
                    24:4c:85:c4:46:81:37:6a:52:25:93:63:aa:bc:84:
                    43:a6:de:22:f9:d7:8e:e9:ea:2b:d1:36:9a:b3:74:
                    62:e9:37:2b:19:ff:0c:82:ff:e4:88:12:f9:b1:f1:
                    0d:28:95:c5:1f:17:b0:8d:8f:7e:a6:bd:35:0a:06:
                    d7:55:ed
                Exponent: 65537 (0x10001)
        X509v3 extensions:
            X509v3 Basic Constraints: 
                CA:FALSE
            Netscape Comment: 
                Easy-RSA Generated Certificate
            X509v3 Subject Key Identifier: 
                55:2D:60:35:23:4F:BD:C2:69:4C:24:03:6B:BA:27:AC:B4:3C:5E:BD
            X509v3 Authority Key Identifier: 
                keyid:F8:8E:64:15:04:E6:BA:9F:23:62:60:81:EB:46:54:54:EF:D0:3C:AE
                DirName:/C=US/ST=CA/L=SanFrancisco/O=OpenVPN/OU=changeme/CN=changeme/name=changeme/emailAddress=mail@host.domain
                serial:BA:B7:75:E0:91:94:FC:8E

            X509v3 Extended Key Usage: 
                TLS Web Client Authentication
            X509v3 Key Usage: 
                Digital Signature
    Signature Algorithm: sha256WithRSAEncryption
         ad:5b:6f:41:67:0e:22:0d:b5:5e:48:02:c8:a3:0b:3a:c6:ae:
         22:d4:f0:5c:0e:97:cf:cb:d1:b7:e4:93:c2:7f:97:74:01:00:
         00:f9:68:aa:52:c3:fd:d1:38:39:2f:6c:18:5f:ac:08:78:69:
         9a:5e:1d:7c:c6:15:29:ac:05:f7:13:da:3a:12:bf:0d:ed:67:
         4c:c9:3c:22:b1:7f:53:a1:d7:82:26:b0:73:4f:eb:60:44:62:
         db:32:87:c8:c6:ff:49:c7:b8:f0:10:33:1c:5e:1a:e5:d2:31:
         84:9c:2c:16:1c:b2:01:5f:4d:d2:af:4d:b1:0f:cb:9d:f3:c2:
         79:7a:e2:ac:44:01:ac:56:93:71:cf:a6:b2:e7:ab:45:4d:6a:
         68:9b:39:b8:21:49:8e:79:b7:60:de:37:24:e2:0c:a8:f2:96:
         27:64:60:0d:07:99:23:51:2d:b8:f1:06:cb:2c:2d:a9:3e:da:
         77:8a:63:7f:13:d6:8f:7d:03:ed:14:de:4a:44:bd:56:0b:6a:
         4b:7b:69:b6:8a:b1:84:50:6d:c3:61:d8:44:c8:10:0f:81:9e:
         83:a0:25:dc:d7:d3:2a:32:e0:ce:4e:91:06:13:b5:bb:db:64:
         8a:46:b8:8a:20:65:61:ef:38:ca:00:da:8b:18:18:f8:0e:5a:
         c9:ed:32:9d:e1:51:05:bf:2d:6f:fb:af:19:f3:a3:39:a8:9b:
         34:a2:cf:49:a4:af:69:3d:eb:28:f6:bb:a0:0f:77:f8:f3:99:
         1b:37:51:a6:59:ac:c8:b5:e4:23:0a:0b:97:93:10:c3:90:60:
         77:a7:07:6e:81:ab:00:6d:55:7c:76:cd:24:dc:d5:08:54:18:
         cc:42:1b:aa:90:72:86:07:93:9f:73:61:68:be:25:7b:25:59:
         0b:d1:4a:61:fc:15:9f:3c:c6:27:42:f8:06:ac:2e:ce:83:f4:
         f5:ae:81:eb:a2:cc:e9:21:a8:be:29:81:f6:fd:5b:62:04:14:
         85:0a:8d:2b:8b:c8:76:40:5f:f2:8c:dd:42:06:13:ce:20:44:
         b2:9c:47:aa:e8:dc:68:8c:2c:38:fe:10:c3:3f:65:e0:98:81:
         7a:96:6b:34:2f:66:97:4e:ad:fe:82:ae:c0:4d:56:68:f9:d4:
         b0:9d:22:72:e5:14:fe:35:ea:cf:2f:37:06:4f:90:ec:2e:e7:
         c2:a5:3c:88:66:1f:e5:c4:72:d8:f6:62:5f:17:cf:a7:09:3c:
         43:bd:b8:49:c8:33:d0:64:e9:1b:b8:da:b9:be:c8:b0:af:24:
         a4:fc:43:f2:10:0a:75:fc:b3:0e:02:22:97:97:2f:8b:61:20:
         b3:7d:47:5c:43:7f:b5:a8
-----BEGIN CERTIFICATE-----
MIIHDDCCBPSgAwIBAgIBAjANBgkqhkiG9w0BAQsFADCBnTELMAkGA1UEBhMCVVMx
CzAJBgNVBAgTAkNBMRUwEwYDVQQHEwxTYW5GcmFuY2lzY28xEDAOBgNVBAoTB09w
ZW5WUE4xETAPBgNVBAsTCGNoYW5nZW1lMREwDwYDVQQDEwhjaGFuZ2VtZTERMA8G
A1UEKRMIY2hhbmdlbWUxHzAdBgkqhkiG9w0BCQEWEG1haWxAaG9zdC5kb21haW4w
HhcNMjQwMTA4MDAzOTE4WhcNMzQwMTA1MDAzOTE4WjCBnDELMAkGA1UEBhMCVVMx
CzAJBgNVBAgTAkNBMRUwEwYDVQQHEwxTYW5GcmFuY2lzY28xEDAOBgNVBAoTB09w
ZW5WUE4xETAPBgNVBAsTCGNoYW5nZW1lMRAwDgYDVQQDEwdjbGllbnQxMREwDwYD
VQQpEwhjaGFuZ2VtZTEfMB0GCSqGSIb3DQEJARYQbWFpbEBob3N0LmRvbWFpbjCC
AiIwDQYJKoZIhvcNAQEBBQADggIPADCCAgoCggIBAKqLzaFpy4lfkkbB2FVveY5Z
OxHUBIzBC2wnwcr113sTPah+jPoRzTUTnfnj0YW/ynJxkFg9/Op5ynISDzWSVlrL
/6qRnbqOS6usPpN8vSGzRVgBEB7sQGMDkxxXjn6lHIyp7djPFZx6wK6JWbNVA1Bo
Gh8siFUMxjOAbkSm6GliWqgujbWFV0NAy/3SqDVxqzMWeYYwSOWmMu8U75AyTSMf
0nZxBemOcqs6g+kO/E3V9/StGW4BxMfKAZgZzZ6+gboS7aumglEiw6gtSYfNUGuP
tBeD8/rXaQA1MOxSXZzq5xeRhGnAnENyI7lOcNEj5PQtpiDl92/U8OTbIgUZwRk1
vY/Bdo+xFSNLrBoBnIuEvdJLi+qT0v6TkkpoqjlOC6vhwCFhVGUbGQfeFQjqx8uw
aGtfQBRF/Ba09hYLJj/Kr3073ZJifsb3o7PQwLC5WtZCQ82x1IEOYs3uqegErTFH
J9xnD3TPPdz9ecChMFSPGLGWkuoMr7p+Smt8YZKTzOfnDEQ+Rr+0aF9+sCd6RMcE
SgxbL0QFNwQmvLHTmm4SIluebp9RGdDXi4/2jbcQkyfGzDb49sUF7IyaHIHbDT1U
JEyFxEaBN2pSJZNjqryEQ6beIvnXjunqK9E2mrN0Yuk3Kxn/DIL/5IgS+bHxDSiV
xR8XsI2Pfqa9NQoG11XtAgMBAAGjggFUMIIBUDAJBgNVHRMEAjAAMC0GCWCGSAGG
+EIBDQQgFh5FYXN5LVJTQSBHZW5lcmF0ZWQgQ2VydGlmaWNhdGUwHQYDVR0OBBYE
FFUtYDUjT73CaUwkA2u6J6y0PF69MIHSBgNVHSMEgcowgceAFPiOZBUE5rqfI2Jg
getGVFTv0DyuoYGjpIGgMIGdMQswCQYDVQQGEwJVUzELMAkGA1UECBMCQ0ExFTAT
BgNVBAcTDFNhbkZyYW5jaXNjbzEQMA4GA1UEChMHT3BlblZQTjERMA8GA1UECxMI
Y2hhbmdlbWUxETAPBgNVBAMTCGNoYW5nZW1lMREwDwYDVQQpEwhjaGFuZ2VtZTEf
MB0GCSqGSIb3DQEJARYQbWFpbEBob3N0LmRvbWFpboIJALq3deCRlPyOMBMGA1Ud
JQQMMAoGCCsGAQUFBwMCMAsGA1UdDwQEAwIHgDANBgkqhkiG9w0BAQsFAAOCAgEA
rVtvQWcOIg21XkgCyKMLOsauItTwXA6Xz8vRt+STwn+XdAEAAPloqlLD/dE4OS9s
GF+sCHhpml4dfMYVKawF9xPaOhK/De1nTMk8IrF/U6HXgiawc0/rYERi2zKHyMb/
Sce48BAzHF4a5dIxhJwsFhyyAV9N0q9NsQ/LnfPCeXrirEQBrFaTcc+msuerRU1q
aJs5uCFJjnm3YN43JOIMqPKWJ2RgDQeZI1EtuPEGyywtqT7ad4pjfxPWj30D7RTe
SkS9VgtqS3tptoqxhFBtw2HYRMgQD4Geg6Al3NfTKjLgzk6RBhO1u9tkika4iiBl
Ye84ygDaixgY+A5aye0yneFRBb8tb/uvGfOjOaibNKLPSaSvaT3rKPa7oA93+POZ
GzdRplmsyLXkIwoLl5MQw5Bgd6cHboGrAG1VfHbNJNzVCFQYzEIbqpByhgeTn3Nh
aL4leyVZC9FKYfwVnzzGJ0L4BqwuzoP09a6B66LM6SGovimB9v1bYgQUhQqNK4vI
dkBf8ozdQgYTziBEspxHqujcaIwsOP4Qwz9l4JiBepZrNC9ml06t/oKuwE1WaPnU
sJ0icuUU/jXqzy83Bk+Q7C7nwqU8iGYf5cRy2PZiXxfPpwk8Q724Scgz0GTpG7ja
ub7IsK8kpPxD8hAKdfyzDgIil5cvi2Egs31HXEN/tag=
-----END CERTIFICATE-----
